(dp0
S'modelName'
p1
S'model_1'
p2
sVmodelsPath
p3
V./Models/
p4
sVkernelSize
p5
I64
sVepoch
p6
I1
sVlearningRate
p7
F0.0001
sVfilters
p8
I32
sVwinLength
p9
I4096
sVmonitorLoss
p10
Vval_loss
p11
sVwavenetConfig
p12
(dp13
Vmodel
p14
(dp15
Vtarget_field_length
p16
I576
sVtarget_padding
p17
I0
sg8
(dp18
Vdepths
p19
(dp20
Vres
p21
I32
sVfinal
p22
(lp23
I32
aI32
asVskip
p24
I32
ssVlengths
p25
(dp26
g21
I3
sg22
(lp27
I3
aI3
asg24
I1
sssVdilations
p28
(lp29
I1
aI2
aI4
aI8
aI16
aI32
aI64
asVnum_stacks
p30
I2
sVinput_length
p31
I576
sss.